; Function Attrs: nounwind uwtable
define internal ptr @itemgetter_new(ptr noundef readonly captures(none) %0, ptr noundef %1, ptr noundef %2) #0 {
  %4 = alloca ptr, align 8
  call void @llvm.lifetime.start.p0(i64 8, ptr nonnull %4) #7
  %5 = icmp eq ptr %2, null
  br i1 %5, label %8, label %6

6:                                                ; preds = %3
  %7 = tail call i32 @_PyArg_NoKeywords(ptr noundef nonnull @.str.80, ptr noundef nonnull %2) #7
  %.not = icmp eq i32 %7, 0
  br i1 %.not, label %38, label %8

8:                                                ; preds = %6, %3
  %9 = getelementptr i8, ptr %1, i64 16
  %.val = load i64, ptr %9, align 8, !tbaa !43
  %10 = icmp slt i64 %.val, 2
  br i1 %10, label %11, label %13

11:                                               ; preds = %8
  %12 = call i32 (ptr, ptr, i64, i64, ...) @PyArg_UnpackTuple(ptr noundef nonnull %1, ptr noundef nonnull @.str.80, i64 noundef 1, i64 noundef 1, ptr noundef nonnull %4) #7
  %.not22 = icmp eq i32 %12, 0
  br i1 %.not22, label %38, label %14

13:                                               ; preds = %8
  store ptr %1, ptr %4, align 8, !tbaa !17
  br label %14

14:                                               ; preds = %11, %13
  %15 = getelementptr i8, ptr %0, i64 888
  %.val24 = load ptr, ptr %15, align 8, !tbaa !63
  %16 = getelementptr i8, ptr %.val24, i64 32
  %.val24.val = load ptr, ptr %16, align 8, !tbaa !4
  %17 = load ptr, ptr %.val24.val, align 8, !tbaa !15
  %18 = call ptr @_PyObject_GC_New(ptr noundef %17) #7
  %19 = icmp eq ptr %18, null
  br i1 %19, label %38, label %20

20:                                               ; preds = %14
  %21 = load ptr, ptr %4, align 8, !tbaa !17
  %22 = load i32, ptr %21, align 8, !tbaa !18
  %23 = icmp slt i32 %22, 0
  br i1 %23, label %_Py_NewRef.exit, label %24

24:                                               ; preds = %20
  %25 = add nuw i32 %22, 1
  store i32 %25, ptr %21, align 8, !tbaa !18
  %.pre = load ptr, ptr %4, align 8, !tbaa !17
  br label %_Py_NewRef.exit

_Py_NewRef.exit:                                  ; preds = %20, %24
  %26 = phi ptr [ %21, %20 ], [ %.pre, %24 ]
  %27 = getelementptr inbounds nuw i8, ptr %18, i64 24
  store ptr %21, ptr %27, align 8, !tbaa !77
  %28 = getelementptr inbounds nuw i8, ptr %18, i64 16
  store i64 %.val, ptr %28, align 8, !tbaa !79
  %29 = getelementptr inbounds nuw i8, ptr %18, i64 32
  store i64 -1, ptr %29, align 8, !tbaa !80
  %30 = getelementptr i8, ptr %26, i64 8
  %.val25 = load ptr, ptr %30, align 8, !tbaa !19
  %.not26 = icmp eq ptr %.val25, @PyLong_Type
  br i1 %.not26, label %31, label %36

31:                                               ; preds = %_Py_NewRef.exit
  %32 = call i64 @PyLong_AsSsize_t(ptr noundef nonnull %26) #7
  %33 = icmp slt i64 %32, 0
  br i1 %33, label %34, label %35

34:                                               ; preds = %31
  call void @PyErr_Clear() #7
  br label %36

35:                                               ; preds = %31
  store i64 %32, ptr %29, align 8, !tbaa !80
  br label %36

36:                                               ; preds = %34, %35, %_Py_NewRef.exit
  %37 = getelementptr inbounds nuw i8, ptr %18, i64 40
  store ptr @itemgetter_vectorcall, ptr %37, align 8, !tbaa !81
  call void @PyObject_GC_Track(ptr noundef nonnull %18) #7
  br label %38

38:                                               ; preds = %36, %14, %11, %6
  %.0 = phi ptr [ null, %6 ], [ null, %11 ], [ %18, %36 ], [ null, %14 ]
  call void @llvm.lifetime.end.p0(i64 8, ptr nonnull %4) #7
  ret ptr %.0
}